target datalayout = "e-m:e-p270:32:32-p271:32:32-p272:64:64-i64:64-i128:128-f80:128-n8:16:32:64-S128"
target triple = "x86_64-pc-linux-gnu"

%struct.AVIOContext = type { ptr, ptr, i32, ptr, ptr, ptr, ptr, ptr, ptr, i64, i32, i32, i32, i32, i32, i64, ptr, ptr, ptr, ptr, i32, i32, ptr, ptr, ptr, i32, ptr, i64, i64 }

; Function Attrs: nounwind uwtable
define void @avio_flush(ptr noundef %0) #0 {
  %2 = alloca ptr, align 8
  %3 = alloca i32, align 4
  store ptr %0, ptr %2, align 8, !tbaa !14
  call void @llvm.lifetime.start.p0(i64 4, ptr %3) #12
  %4 = load ptr, ptr %2, align 8, !tbaa !14
  %5 = getelementptr inbounds nuw %struct.AVIOContext, ptr %4, i32 0, i32 12
  %6 = load i32, ptr %5, align 8, !tbaa !46
  %7 = icmp ne i32 %6, 0
  br i1 %7, label %8, label %32

8:                                                ; preds = %1
  %9 = load ptr, ptr %2, align 8, !tbaa !14
  %10 = getelementptr inbounds nuw %struct.AVIOContext, ptr %9, i32 0, i32 3
  %11 = load ptr, ptr %10, align 8, !tbaa !23
  %12 = load ptr, ptr %2, align 8, !tbaa !14
  %13 = getelementptr inbounds nuw %struct.AVIOContext, ptr %12, i32 0, i32 26
  %14 = load ptr, ptr %13, align 8, !tbaa !24
  %15 = ptrtoint ptr %11 to i64
  %16 = ptrtoint ptr %14 to i64
  %17 = sub i64 %15, %16
  %18 = icmp sgt i64 0, %17
  br i1 %18, label %19, label %29

19:                                               ; preds = %8
  %20 = load ptr, ptr %2, align 8, !tbaa !14
  %21 = getelementptr inbounds nuw %struct.AVIOContext, ptr %20, i32 0, i32 3
  %22 = load ptr, ptr %21, align 8, !tbaa !23
  %23 = load ptr, ptr %2, align 8, !tbaa !14
  %24 = getelementptr inbounds nuw %struct.AVIOContext, ptr %23, i32 0, i32 26
  %25 = load ptr, ptr %24, align 8, !tbaa !24
  %26 = ptrtoint ptr %22 to i64
  %27 = ptrtoint ptr %25 to i64
  %28 = sub i64 %26, %27
  br label %30

29:                                               ; preds = %8
  br label %30

30:                                               ; preds = %29, %19
  %31 = phi i64 [ %28, %19 ], [ 0, %29 ]
  br label %33

32:                                               ; preds = %1
  br label %33

33:                                               ; preds = %32, %30
  %34 = phi i64 [ %31, %30 ], [ 0, %32 ]
  %35 = trunc i64 %34 to i32
  store i32 %35, ptr %3, align 4, !tbaa !11
  %36 = load ptr, ptr %2, align 8, !tbaa !14
  call void @flush_buffer(ptr noundef %36)
  %37 = load i32, ptr %3, align 4, !tbaa !11
  %38 = icmp ne i32 %37, 0
  br i1 %38, label %39, label %44

39:                                               ; preds = %33
  %40 = load ptr, ptr %2, align 8, !tbaa !14
  %41 = load i32, ptr %3, align 4, !tbaa !11
  %42 = sext i32 %41 to i64
  %43 = call i64 @avio_seek(ptr noundef %40, i64 noundef %42, i32 noundef 1)
  br label %44

44:                                               ; preds = %39, %33
  call void @llvm.lifetime.end.p0(i64 4, ptr %3) #12
  ret void
}