; Function Attrs: nounwind uwtable
define void @avio_flush(ptr noundef %0) local_unnamed_addr #3 {
  %2 = getelementptr inbounds nuw i8, ptr %0, i64 88
  %3 = load i32, ptr %2, align 8, !tbaa !20
  %.not = icmp eq i32 %3, 0
  br i1 %.not, label %.thread, label %4

4:                                                ; preds = %1
  %5 = getelementptr inbounds nuw i8, ptr %0, i64 24
  %6 = load ptr, ptr %5, align 8, !tbaa !16
  %7 = getelementptr inbounds nuw i8, ptr %0, i64 184
  %8 = load ptr, ptr %7, align 8, !tbaa !17
  %9 = ptrtoint ptr %6 to i64
  %10 = ptrtoint ptr %8 to i64
  %11 = sub i64 %9, %10
  %12 = icmp slt i64 %11, 0
  br i1 %12, label %13, label %.thread

.thread:                                          ; preds = %1, %4
  tail call fastcc void @flush_buffer(ptr noundef nonnull %0)
  br label %18

13:                                               ; preds = %4
  tail call fastcc void @flush_buffer(ptr noundef nonnull %0)
  %14 = and i64 %11, 4294967295
  %.not9 = icmp eq i64 %14, 0
  br i1 %.not9, label %18, label %15

15:                                               ; preds = %13
  %sext = shl i64 %11, 32
  %16 = ashr exact i64 %sext, 32
  %17 = tail call i64 @avio_seek(ptr noundef nonnull %0, i64 noundef %16, i32 noundef 1)
  br label %18

18:                                               ; preds = %.thread, %15, %13
  ret void
}